; ModuleID = '24/1598.c'
source_filename = "24/1598.c"
target datalayout = "e-m:e-p270:32:32-p271:32:32-p272:64:64-i64:64-f80:128-n8:16:32:64-S128"
target triple = "x86_64-pc-linux-gnu"

@.str = private unnamed_addr constant [3 x i8] c"%c\00", align 1
@.str.1 = private unnamed_addr constant [2 x i8] c"\0A\00", align 1

; Function Attrs: noinline nounwind uwtable
define dso_local i32 @main() #0 {
  %1 = alloca i32, align 4
  %2 = alloca [999 x i8], align 16
  %3 = alloca [200 x [55 x i8]], align 16
  %4 = alloca i32, align 4
  %5 = alloca i32, align 4
  %6 = alloca i32, align 4
  %7 = alloca i32, align 4
  %8 = alloca [200 x i32], align 16
  %9 = alloca i32, align 4
  store i32 0, i32* %1, align 4
  store i32 0, i32* %5, align 4
  store i32 0, i32* %6, align 4
  %10 = getelementptr inbounds [999 x i8], [999 x i8]* %2, i64 0, i64 0
  %11 = call i32 (i8*, ...) bitcast (i32 (...)* @gets to i32 (i8*, ...)*)(i8* %10)
  store i32 0, i32* %4, align 4
  br label %12

12:                                               ; preds = %58, %0
  br i1 true, label %13, label %61

13:                                               ; preds = %12
  %14 = load i32, i32* %4, align 4
  %15 = sext i32 %14 to i64
  %16 = getelementptr inbounds [999 x i8], [999 x i8]* %2, i64 0, i64 %15
  %17 = load i8, i8* %16, align 1
  %18 = sext i8 %17 to i32
  %19 = icmp eq i32 %18, 0
  br i1 %19, label %20, label %28

20:                                               ; preds = %13
  %21 = load i32, i32* %5, align 4
  %22 = sext i32 %21 to i64
  %23 = getelementptr inbounds [200 x [55 x i8]], [200 x [55 x i8]]* %3, i64 0, i64 %22
  %24 = load i32, i32* %6, align 4
  %25 = sext i32 %24 to i64
  %26 = getelementptr inbounds [55 x i8], [55 x i8]* %23, i64 0, i64 %25
  store i8 33, i8* %26, align 1
  %27 = load i32, i32* %5, align 4
  store i32 %27, i32* %9, align 4
  br label %61

28:                                               ; preds = %13
  %29 = load i32, i32* %4, align 4
  %30 = sext i32 %29 to i64
  %31 = getelementptr inbounds [999 x i8], [999 x i8]* %2, i64 0, i64 %30
  %32 = load i8, i8* %31, align 1
  %33 = sext i8 %32 to i32
  %34 = icmp eq i32 %33, 32
  br i1 %34, label %35, label %44

35:                                               ; preds = %28
  %36 = load i32, i32* %5, align 4
  %37 = sext i32 %36 to i64
  %38 = getelementptr inbounds [200 x [55 x i8]], [200 x [55 x i8]]* %3, i64 0, i64 %37
  %39 = load i32, i32* %6, align 4
  %40 = sext i32 %39 to i64
  %41 = getelementptr inbounds [55 x i8], [55 x i8]* %38, i64 0, i64 %40
  store i8 33, i8* %41, align 1
  %42 = load i32, i32* %5, align 4
  %43 = add nsw i32 %42, 1
  store i32 %43, i32* %5, align 4
  store i32 0, i32* %6, align 4
  br label %57

44:                                               ; preds = %28
  %45 = load i32, i32* %4, align 4
  %46 = sext i32 %45 to i64
  %47 = getelementptr inbounds [999 x i8], [999 x i8]* %2, i64 0, i64 %46
  %48 = load i8, i8* %47, align 1
  %49 = load i32, i32* %5, align 4
  %50 = sext i32 %49 to i64
  %51 = getelementptr inbounds [200 x [55 x i8]], [200 x [55 x i8]]* %3, i64 0, i64 %50
  %52 = load i32, i32* %6, align 4
  %53 = sext i32 %52 to i64
  %54 = getelementptr inbounds [55 x i8], [55 x i8]* %51, i64 0, i64 %53
  store i8 %48, i8* %54, align 1
  %55 = load i32, i32* %6, align 4
  %56 = add nsw i32 %55, 1
  store i32 %56, i32* %6, align 4
  br label %57

57:                                               ; preds = %44, %35
  br label %58

58:                                               ; preds = %57
  %59 = load i32, i32* %4, align 4
  %60 = add nsw i32 %59, 1
  store i32 %60, i32* %4, align 4
  br label %12

61:                                               ; preds = %20, %12
  store i32 0, i32* %6, align 4
  store i32 0, i32* %5, align 4
  br label %62

62:                                               ; preds = %94, %61
  %63 = load i32, i32* %5, align 4
  %64 = load i32, i32* %9, align 4
  %65 = icmp sle i32 %63, %64
  br i1 %65, label %66, label %97

66:                                               ; preds = %62
  %67 = load i32, i32* %6, align 4
  %68 = sext i32 %67 to i64
  %69 = getelementptr inbounds [200 x i32], [200 x i32]* %8, i64 0, i64 %68
  store i32 0, i32* %69, align 4
  store i32 0, i32* %4, align 4
  br label %70

70:                                               ; preds = %88, %66
  br i1 true, label %71, label %91

71:                                               ; preds = %70
  %72 = load i32, i32* %5, align 4
  %73 = sext i32 %72 to i64
  %74 = getelementptr inbounds [200 x [55 x i8]], [200 x [55 x i8]]* %3, i64 0, i64 %73
  %75 = load i32, i32* %4, align 4
  %76 = sext i32 %75 to i64
  %77 = getelementptr inbounds [55 x i8], [55 x i8]* %74, i64 0, i64 %76
  %78 = load i8, i8* %77, align 1
  %79 = sext i8 %78 to i32
  %80 = icmp eq i32 %79, 33
  br i1 %80, label %81, label %82

81:                                               ; preds = %71
  br label %91

82:                                               ; preds = %71
  %83 = load i32, i32* %6, align 4
  %84 = sext i32 %83 to i64
  %85 = getelementptr inbounds [200 x i32], [200 x i32]* %8, i64 0, i64 %84
  %86 = load i32, i32* %85, align 4
  %87 = add nsw i32 %86, 1
  store i32 %87, i32* %85, align 4
  br label %88

88:                                               ; preds = %82
  %89 = load i32, i32* %4, align 4
  %90 = add nsw i32 %89, 1
  store i32 %90, i32* %4, align 4
  br label %70

91:                                               ; preds = %81, %70
  %92 = load i32, i32* %6, align 4
  %93 = add nsw i32 %92, 1
  store i32 %93, i32* %6, align 4
  br label %94

94:                                               ; preds = %91
  %95 = load i32, i32* %5, align 4
  %96 = add nsw i32 %95, 1
  store i32 %96, i32* %5, align 4
  br label %62

97:                                               ; preds = %62
  store i32 0, i32* %7, align 4
  store i32 0, i32* %9, align 4
  store i32 1, i32* %4, align 4
  br label %98

98:                                               ; preds = %127, %97
  %99 = load i32, i32* %4, align 4
  %100 = load i32, i32* %6, align 4
  %101 = icmp slt i32 %99, %100
  br i1 %101, label %102, label %130

102:                                              ; preds = %98
  %103 = load i32, i32* %7, align 4
  %104 = sext i32 %103 to i64
  %105 = getelementptr inbounds [200 x i32], [200 x i32]* %8, i64 0, i64 %104
  %106 = load i32, i32* %105, align 4
  %107 = load i32, i32* %4, align 4
  %108 = sext i32 %107 to i64
  %109 = getelementptr inbounds [200 x i32], [200 x i32]* %8, i64 0, i64 %108
  %110 = load i32, i32* %109, align 4
  %111 = icmp sgt i32 %106, %110
  br i1 %111, label %112, label %114

112:                                              ; preds = %102
  %113 = load i32, i32* %4, align 4
  store i32 %113, i32* %7, align 4
  br label %114

114:                                              ; preds = %112, %102
  %115 = load i32, i32* %9, align 4
  %116 = sext i32 %115 to i64
  %117 = getelementptr inbounds [200 x i32], [200 x i32]* %8, i64 0, i64 %116
  %118 = load i32, i32* %117, align 4
  %119 = load i32, i32* %4, align 4
  %120 = sext i32 %119 to i64
  %121 = getelementptr inbounds [200 x i32], [200 x i32]* %8, i64 0, i64 %120
  %122 = load i32, i32* %121, align 4
  %123 = icmp slt i32 %118, %122
  br i1 %123, label %124, label %126

124:                                              ; preds = %114
  %125 = load i32, i32* %4, align 4
  store i32 %125, i32* %9, align 4
  br label %126

126:                                              ; preds = %124, %114
  br label %127

127:                                              ; preds = %126
  %128 = load i32, i32* %4, align 4
  %129 = add nsw i32 %128, 1
  store i32 %129, i32* %4, align 4
  br label %98

130:                                              ; preds = %98
  store i32 0, i32* %4, align 4
  br label %131

131:                                              ; preds = %151, %130
  %132 = load i32, i32* %9, align 4
  %133 = sext i32 %132 to i64
  %134 = getelementptr inbounds [200 x [55 x i8]], [200 x [55 x i8]]* %3, i64 0, i64 %133
  %135 = load i32, i32* %4, align 4
  %136 = sext i32 %135 to i64
  %137 = getelementptr inbounds [55 x i8], [55 x i8]* %134, i64 0, i64 %136
  %138 = load i8, i8* %137, align 1
  %139 = sext i8 %138 to i32
  %140 = icmp ne i32 %139, 33
  br i1 %140, label %141, label %154

141:                                              ; preds = %131
  %142 = load i32, i32* %9, align 4
  %143 = sext i32 %142 to i64
  %144 = getelementptr inbounds [200 x [55 x i8]], [200 x [55 x i8]]* %3, i64 0, i64 %143
  %145 = load i32, i32* %4, align 4
  %146 = sext i32 %145 to i64
  %147 = getelementptr inbounds [55 x i8], [55 x i8]* %144, i64 0, i64 %146
  %148 = load i8, i8* %147, align 1
  %149 = sext i8 %148 to i32
  %150 = call i32 (i8*, ...) @printf(i8* getelementptr inbounds ([3 x i8], [3 x i8]* @.str, i64 0, i64 0), i32 %149)
  br label %151

151:                                              ; preds = %141
  %152 = load i32, i32* %4, align 4
  %153 = add nsw i32 %152, 1
  store i32 %153, i32* %4, align 4
  br label %131

154:                                              ; preds = %131
  %155 = call i32 (i8*, ...) @printf(i8* getelementptr inbounds ([2 x i8], [2 x i8]* @.str.1, i64 0, i64 0))
  store i32 0, i32* %4, align 4
  br label %156

156:                                              ; preds = %176, %154
  %157 = load i32, i32* %7, align 4
  %158 = sext i32 %157 to i64
  %159 = getelementptr inbounds [200 x [55 x i8]], [200 x [55 x i8]]* %3, i64 0, i64 %158
  %160 = load i32, i32* %4, align 4
  %161 = sext i32 %160 to i64
  %162 = getelementptr inbounds [55 x i8], [55 x i8]* %159, i64 0, i64 %161
  %163 = load i8, i8* %162, align 1
  %164 = sext i8 %163 to i32
  %165 = icmp ne i32 %164, 33
  br i1 %165, label %166, label %179

166:                                              ; preds = %156
  %167 = load i32, i32* %7, align 4
  %168 = sext i32 %167 to i64
  %169 = getelementptr inbounds [200 x [55 x i8]], [200 x [55 x i8]]* %3, i64 0, i64 %168
  %170 = load i32, i32* %4, align 4
  %171 = sext i32 %170 to i64
  %172 = getelementptr inbounds [55 x i8], [55 x i8]* %169, i64 0, i64 %171
  %173 = load i8, i8* %172, align 1
  %174 = sext i8 %173 to i32
  %175 = call i32 (i8*, ...) @printf(i8* getelementptr inbounds ([3 x i8], [3 x i8]* @.str, i64 0, i64 0), i32 %174)
  br label %176

176:                                              ; preds = %166
  %177 = load i32, i32* %4, align 4
  %178 = add nsw i32 %177, 1
  store i32 %178, i32* %4, align 4
  br label %156

179:                                              ; preds = %156
  ret i32 0
}

declare dso_local i32 @gets(...) #1

declare dso_local i32 @printf(i8*, ...) #1


!llvm.module.flags = !{!0}
!llvm.ident = !{!1}

!0 = !{i32 1, !"wchar_size", i32 4}
!1 = !{!"clang version 10.0.0-4ubuntu1 "}
